; Function Attrs: null_pointer_is_valid sspstrong uwtable
define hidden i32 @mapi_dissect_struct_RopInput(ptr noundef %0, i32 noundef %1, ptr noundef %2, ptr noundef %3, ptr noundef %4, ptr noundef %5, i32 noundef %6, i32 %7) local_unnamed_addr #0 {
  %9 = alloca i8, align 1
  %10 = getelementptr inbounds nuw i8, ptr %4, i64 26
  %11 = load i8, ptr %10, align 2, !range !9, !noundef !10
  store i8 1, ptr %10, align 2
  %.not = icmp eq ptr %3, null
  br i1 %.not, label %16, label %12

12:                                               ; preds = %8
  %13 = tail call ptr @proto_tree_add_item(ptr noundef nonnull %3, i32 noundef %6, ptr noundef %0, i32 noundef %1, i32 noundef -1, i32 noundef 0)
  %14 = load i32, ptr @ett_mapi_RopInput, align 4
  %15 = tail call ptr @proto_item_add_subtree(ptr noundef %13, i32 noundef %14)
  br label %16

16:                                               ; preds = %12, %8
  %.026 = phi ptr [ %15, %12 ], [ null, %8 ]
  %.0 = phi ptr [ %13, %12 ], [ null, %8 ]
  %17 = load i32, ptr @hf_mapi_RopInput_RopId, align 4
  call void @llvm.lifetime.start.p0(i64 1, ptr nonnull %9) #6
  store i8 0, ptr %9, align 1
  %18 = call i32 @dissect_ndr_uint8(ptr noundef %0, i32 noundef %1, ptr noundef %2, ptr noundef %.026, ptr noundef %4, ptr noundef %5, i32 noundef %17, ptr noundef nonnull %9)
  %19 = load i8, ptr %9, align 1
  call void @llvm.lifetime.end.p0(i64 1, ptr nonnull %9) #6
  %20 = zext i8 %19 to i32
  %21 = call fastcc i32 @mapi_dissect_RopRequest(ptr noundef %0, i32 noundef %18, ptr noundef %2, ptr noundef %.026, ptr noundef %4, ptr noundef %5, i32 noundef %20)
  %22 = sub i32 %21, %1
  call void @proto_item_set_len(ptr noundef %.0, i32 noundef %22)
  store i8 %11, ptr %10, align 2
  ret i32 %21
}